target datalayout = "e-m:e-p270:32:32-p271:32:32-p272:64:64-i64:64-i128:128-f80:128-n8:16:32:64-S128"
target triple = "x86_64-pc-linux-gnu"

%struct._image_pos = type { float, float, float, float }
%struct._image_box = type { i32, i32, i32, i32, i32, i32, i32, i32, i32, i32, %struct._image_pos, %struct._image_pos, %struct._image_pos, ptr }

; Function Attrs: nounwind uwtable
define void @_clear_pos(ptr noundef %0) #0 {
  %2 = alloca ptr, align 8
  store ptr %0, ptr %2, align 8, !tbaa !6
  %3 = load ptr, ptr %2, align 8, !tbaa !6
  %4 = getelementptr inbounds nuw %struct._image_pos, ptr %3, i32 0, i32 3
  store float 0.000000e+00, ptr %4, align 4, !tbaa !11
  %5 = load ptr, ptr %2, align 8, !tbaa !6
  %6 = getelementptr inbounds nuw %struct._image_pos, ptr %5, i32 0, i32 2
  store float 0.000000e+00, ptr %6, align 4, !tbaa !14
  %7 = load ptr, ptr %2, align 8, !tbaa !6
  %8 = getelementptr inbounds nuw %struct._image_pos, ptr %7, i32 0, i32 1
  store float 0.000000e+00, ptr %8, align 4, !tbaa !15
  %9 = load ptr, ptr %2, align 8, !tbaa !6
  %10 = getelementptr inbounds nuw %struct._image_pos, ptr %9, i32 0, i32 0
  store float 0.000000e+00, ptr %10, align 4, !tbaa !16
  ret void
}

; Function Attrs: nounwind uwtable
define void @dt_printing_get_screen_pos(ptr noundef %0, ptr noundef %1, ptr noundef %2) #0 {
  %4 = alloca ptr, align 8
  %5 = alloca ptr, align 8
  %6 = alloca ptr, align 8
  store ptr %0, ptr %4, align 8, !tbaa !33
  store ptr %1, ptr %5, align 8, !tbaa !17
  store ptr %2, ptr %6, align 8, !tbaa !6
  %7 = load ptr, ptr %6, align 8, !tbaa !6
  call void @_clear_pos(ptr noundef %7)
  %8 = load ptr, ptr %5, align 8, !tbaa !17
  %9 = getelementptr inbounds nuw %struct._image_box, ptr %8, i32 0, i32 11
  %10 = load ptr, ptr %5, align 8, !tbaa !17
  %11 = getelementptr inbounds nuw %struct._image_box, ptr %10, i32 0, i32 9
  %12 = load i32, ptr %11, align 4, !tbaa !31
  %13 = load ptr, ptr %5, align 8, !tbaa !17
  %14 = getelementptr inbounds nuw %struct._image_box, ptr %13, i32 0, i32 5
  %15 = load i32, ptr %14, align 4, !tbaa !28
  %16 = load ptr, ptr %5, align 8, !tbaa !17
  %17 = getelementptr inbounds nuw %struct._image_box, ptr %16, i32 0, i32 6
  %18 = load i32, ptr %17, align 8, !tbaa !27
  %19 = load ptr, ptr %6, align 8, !tbaa !6
  call void @_align_pos(ptr noundef %9, i32 noundef %12, i32 noundef %15, i32 noundef %18, ptr noundef %19)
  ret void
}