; Function Attrs: mustprogress nofree norecurse nosync nounwind willreturn memory(argmem: readwrite) uwtable
define void @dt_printing_get_screen_pos(ptr noundef readnone captures(none) %0, ptr noundef readonly captures(none) %1, ptr noundef writeonly captures(none) initializes((0, 16)) %2) local_unnamed_addr #5 {
  tail call void @llvm.memset.p0.i64(ptr noundef nonnull align 4 dereferenceable(16) %2, i8 0, i64 16, i1 false)
  %4 = getelementptr inbounds nuw i8, ptr %1, i64 56
  %5 = getelementptr inbounds nuw i8, ptr %1, i64 36
  %6 = load i32, ptr %5, align 4, !tbaa !6
  %7 = getelementptr inbounds nuw i8, ptr %1, i64 20
  %8 = load i32, ptr %7, align 4, !tbaa !85
  %9 = getelementptr inbounds nuw i8, ptr %1, i64 24
  %10 = load i32, ptr %9, align 8, !tbaa !86
  tail call void @_align_pos(ptr noundef nonnull %4, i32 noundef %6, i32 noundef %8, i32 noundef %10, ptr noundef nonnull %2)
  ret void
}